(iBatters
Batters
p1
(dp2
S'batters'
p3
(lp4
(iPlayer
Player
p5
(dp6
S'score'
p7
I0
sS'rbi'
p8
I92
sS'ab'
p9
I684
sS'name'
p10
S'Ian Kinsler'
p11
sS'bb'
p12
I29
sS'ops'
p13
F0.72699999999999998
sS'hr'
p14
I17
sS'h'
I188
sS'slg'
p15
F0.41999999999999998
sS'r'
I100
sS'so'
p16
I79
sS'b2'
p17
I40
sS'b3'
p18
I4
sS'cs'
p19
I4
sS'sb'
p20
I15
sS'avg'
p21
F0.27500000000000002
sS'war'
p22
F5.5
sS'obp'
p23
F0.307
sba(iPlayer
Player
p24
(dp25
g7
I0
sg8
I59
sg9
I660
sg10
S'Jose Altuve'
p26
sg12
I36
sg13
F0.82999999999999996
sg14
I7
sS'h'
I225
sg15
F0.45300000000000001
sS'r'
I85
sg16
I53
sg17
I47
sg18
I3
sg19
I9
sg20
I56
sg21
F0.34100000000000003
sg22
F6
sg23
F0.377
sba(iPlayer
Player
p27
(dp28
g7
I0
sg8
I74
sg9
I650
sg10
S'Hunter Pence'
p29
sg12
I52
sg13
F0.77700000000000002
sg14
I20
sS'h'
I180
sg15
F0.44500000000000001
sS'r'
I106
sg16
I130
sg17
I29
sg18
I10
sg19
I6
sg20
I13
sg21
F0.27700000000000002
sg22
F3.6000000000000001
sg23
F0.33200000000000002
sba(iPlayer
Player
p30
(dp31
g7
I0
sg8
I96
sg9
I644
sg10
S'Adam Jones'
p32
sg12
I19
sg13
F0.78000000000000003
sg14
I29
sS'h'
I181
sg15
F0.46899999999999997
sS'r'
I88
sg16
I133
sg17
I30
sg18
I2
sg19
I1
sg20
I7
sg21
F0.28100000000000003
sg22
F4.9000000000000004
sg23
F0.311
sba(iPlayer
Player
p33
(dp34
g7
I0
sg8
I50
sg9
I642
sg10
S'Nick Markakis'
p35
sg12
I62
sg13
F0.72899999999999998
sg14
I14
sS'h'
I177
sg15
F0.38600000000000001
sS'r'
I81
sg16
I84
sg17
I27
sg18
I1
sg19
I2
sg20
I4
sg21
F0.27600000000000002
sg22
F2.1000000000000001
sg23
F0.34200000000000003
sba(iPlayer
Player
p36
(dp37
g7
I0
sg8
I105
sg9
I633
sg10
S'Albert Pujols'
p38
sg12
I48
sg13
F0.79000000000000004
sg14
I28
sS'h'
I172
sg15
F0.46600000000000003
sS'r'
I89
sg16
I71
sg17
I37
sg18
I1
sg19
I1
sg20
I5
sg21
F0.27200000000000002
sg22
F3.8999999999999999
sg23
F0.32400000000000001
sba(iPlayer
Player
p39
(dp40
g7
I0
sg8
I91
sg9
I624
sg10
S'Evan Longoria'
p41
sg12
I57
sg13
F0.72399999999999998
sg14
I22
sS'h'
I158
sg15
F0.40400000000000003
sS'r'
I83
sg16
I133
sg17
I26
sg18
I1
sg19
I0
sg20
I5
sg21
F0.253
sg22
F3.3999999999999999
sg23
F0.32000000000000001
sba(iPlayer
Player
p42
(dp43
g7
I0
sg8
I74
sg9
I622
sg10
S'Alexei Ramirez'
p44
sg12
I24
sg13
F0.71299999999999997
sg14
I15
sS'h'
I170
sg15
F0.40799999999999997
sS'r'
I82
sg16
I81
sg17
I35
sg18
I2
sg19
I4
sg20
I21
sg21
F0.27300000000000002
sg22
F3
sg23
F0.30499999999999999
sba(iPlayer
Player
p45
(dp46
g7
I0
sg8
I41
sg9
I619
sg10
S'Elvis Andrus'
p47
sg12
I46
sg13
F0.64700000000000002
sg14
I2
sS'h'
I163
sg15
F0.33300000000000002
sS'r'
I72
sg16
I96
sg17
I35
sg18
I1
sg19
I15
sg20
I27
sg21
F0.26300000000000001
sg22
F1
sg23
F0.314
sba(iPlayer
Player
p48
(dp49
g7
I0
sg8
I75
sg9
I617
sg10
S'Howie Kendrick'
p50
sg12
I48
sg13
F0.74399999999999999
sg14
I7
sS'h'
I181
sg15
F0.39700000000000002
sS'r'
I85
sg16
I110
sg17
I33
sg18
I5
sg19
I5
sg20
I14
sg21
F0.29299999999999998
sg22
F5.4000000000000004
sg23
F0.34699999999999998
sba(iPlayer
Player
p51
(dp52
g7
I0
sg8
I76
sg9
I616
sg10
S'Casey McGehee'
p53
sg12
I67
sg13
F0.71199999999999997
sg14
I4
sS'h'
I177
sg15
F0.35699999999999998
sS'r'
I56
sg16
I102
sg17
I29
sg18
I1
sg19
I2
sg20
I4
sg21
F0.28699999999999998
sg22
F1.1000000000000001
sg23
F0.35499999999999998
sba(iPlayer
Player
p54
(dp55
g7
I0
sg8
I108
sg9
I613
sg10
S'Nelson Cruz'
p56
sg12
I55
sg13
F0.85899999999999999
sg14
I40
sS'h'
I166
sg15
F0.52500000000000002
sS'r'
I87
sg16
I140
sg17
I32
sg18
I2
sg19
I5
sg20
I4
sg21
F0.27100000000000002
sg22
F4.7000000000000002
sg23
F0.33300000000000002
sba(iPlayer
Player
p57
(dp58
g7
I0
sg8
I83
sg9
I613
sg10
S'Anthony Rendon'
p59
sg12
I58
sg13
F0.82399999999999995
sg14
I21
sS'h'
I176
sg15
F0.47299999999999998
sS'r'
I111
sg16
I104
sg17
I39
sg18
I6
sg19
I3
sg20
I17
sg21
F0.28699999999999998
sg22
F6.5
sg23
F0.35099999999999998
sba(iPlayer
Player
p60
(dp61
g7
I0
sg8
I109
sg9
I611
sg10
S'Miguel Cabrera'
p62
sg12
I60
sg13
F0.89500000000000002
sg14
I25
sS'h'
I191
sg15
F0.52400000000000002
sS'r'
I101
sg16
I117
sg17
I52
sg18
I1
sg19
I1
sg20
I1
sg21
F0.313
sg22
F4.9000000000000004
sg23
F0.371
sba(iPlayer
Player
p63
(dp64
g7
I0
sg8
I97
sg9
I611
sg10
S'Michael Brantley'
p65
sg12
I52
sg13
F0.89000000000000001
sg14
I20
sS'h'
I200
sg15
F0.50600000000000001
sS'r'
I94
sg16
I56
sg17
I45
sg18
I2
sg19
I1
sg20
I23
sg21
F0.32700000000000001
sg22
F7
sg23
F0.38500000000000001
sba(iPlayer
Player
p66
(dp67
g7
I0
sg8
I51
sg9
I610
sg10
S'Jose Reyes'
p68
sg12
I38
sg13
F0.72599999999999998
sg14
I9
sS'h'
I175
sg15
F0.39800000000000002
sS'r'
I94
sg16
I73
sg17
I33
sg18
I4
sg19
I2
sg20
I30
sg21
F0.28699999999999998
sg22
F3.1000000000000001
sg23
F0.32800000000000001
sba(iPlayer
Player
p69
(dp70
g7
I0
sg8
I37
sg9
I610
sg10
S'Denard Span'
p71
sg12
I50
sg13
F0.77100000000000002
sg14
I5
sS'h'
I184
sg15
F0.41599999999999998
sS'r'
I94
sg16
I65
sg17
I39
sg18
I8
sg19
I7
sg20
I31
sg21
F0.30199999999999999
sg22
F3.6000000000000001
sg23
F0.35499999999999998
sba(iPlayer
Player
p72
(dp73
g7
I0
sg8
I34
sg9
I609
sg10
S'Dee Gordon'
p74
sg12
I31
sg13
F0.70399999999999996
sg14
I2
sS'h'
I176
sg15
F0.378
sS'r'
I92
sg16
I107
sg17
I24
sg18
I12
sg19
I19
sg20
I64
sg21
F0.28899999999999998
sg22
F2.3999999999999999
sg23
F0.32600000000000001
sba(iPlayer
Player
p75
(dp76
g7
I0
sg8
I98
sg9
I608
sg10
S'Josh Donaldson'
p77
sg12
I76
sg13
F0.79800000000000004
sg14
I29
sS'h'
I155
sg15
F0.45600000000000002
sS'r'
I93
sg16
I130
sg17
I31
sg18
I2
sg19
I0
sg20
I8
sg21
F0.255
sg22
F7.4000000000000004
sg23
F0.34200000000000003
sba(iPlayer
Player
p78
(dp79
g7
I0
sg8
I78
sg9
I607
sg10
S'Freddie Freeman'
p80
sg12
I90
sg13
F0.84699999999999998
sg14
I18
sS'h'
I175
sg15
F0.46100000000000002
sS'r'
I93
sg16
I145
sg17
I43
sg18
I4
sg19
I4
sg20
I3
sg21
F0.28799999999999998
sg22
F3.1000000000000001
sg23
F0.38600000000000001
sba(iPlayer
Player
p81
(dp82
g7
I0
sg8
I111
sg9
I602
sg10
S'Mike Trout'
p83
sg12
I83
sg13
F0.93899999999999995
sg14
I36
sS'h'
I173
sg15
F0.56100000000000005
sS'r'
I115
sg16
I184
sg17
I39
sg18
I9
sg19
I2
sg20
I16
sg21
F0.28699999999999998
sg22
F7.9000000000000004
sg23
F0.377
sba(iPlayer
Player
p84
(dp85
g7
I0
sg8
I28
sg9
I601
sg10
S'Ben Revere'
p86
sg12
I13
sg13
F0.68600000000000005
sg14
I2
sS'h'
I184
sg15
F0.36099999999999999
sS'r'
I71
sg16
I49
sg17
I13
sg18
I7
sg19
I8
sg20
I49
sg21
F0.30599999999999999
sg22
F0.59999999999999998
sg23
F0.32500000000000001
sba(iPlayer
Player
p87
(dp88
g7
I0
sg8
I69
sg9
I600
sg10
S'James Loney'
p89
sg12
I41
sg13
F0.71599999999999997
sg14
I9
sS'h'
I174
sg15
F0.38
sS'r'
I59
sg16
I80
sg17
I27
sg18
I0
sg19
I0
sg20
I4
sg21
F0.28999999999999998
sg22
F1.5
sg23
F0.33600000000000002
sba(iPlayer
Player
p90
(dp91
g7
I0
sg8
I100
sg9
I600
sg10
S'Yoenis Cespedes'
p92
sg12
I35
sg13
F0.751
sg14
I22
sS'h'
I156
sg15
F0.45000000000000001
sS'r'
I89
sg16
I128
sg17
I36
sg18
I6
sg19
I2
sg20
I7
sg21
F0.26000000000000001
sg22
F4.0999999999999996
sg23
F0.30099999999999999
sba(iPlayer
Player
p93
(dp94
g7
I0
sg8
I71
sg9
I598
sg10
S'Brian Dozier'
p95
sg12
I89
sg13
F0.76200000000000001
sg14
I23
sS'h'
I145
sg15
F0.41599999999999998
sS'r'
I112
sg16
I129
sg17
I33
sg18
I1
sg19
I7
sg20
I21
sg21
F0.24199999999999999
sg22
F5.2000000000000002
sg23
F0.34499999999999997
sba(iPlayer
Player
p96
(dp97
g7
I0
sg8
I47
sg9
I597
sg10
S'Austin Jackson'
p98
sg12
I47
sg13
F0.65500000000000003
sg14
I4
sS'h'
I153
sg15
F0.34699999999999998
sS'r'
I71
sg16
I144
sg17
I30
sg18
I6
sg19
I6
sg20
I20
sg21
F0.25600000000000001
sg22
F1.7
sg23
F0.308
sba(iPlayer
Player
p99
(dp100
g7
I0
sg8
I80
sg9
I597
sg10
S'Todd Frazier'
p101
sg12
I52
sg13
F0.79500000000000004
sg14
I29
sS'h'
I163
sg15
F0.45900000000000002
sS'r'
I88
sg16
I139
sg17
I22
sg18
I1
sg19
I8
sg20
I20
sg21
F0.27300000000000002
sg22
F5.2999999999999998
sg23
F0.33600000000000002
sba(iPlayer
Player
p102
(dp103
g7
I0
sg8
I57
sg9
I596
sg10
S'Daniel Murphy'
p104
sg12
I39
sg13
F0.73399999999999999
sg14
I9
sS'h'
I172
sg15
F0.40300000000000002
sS'r'
I79
sg16
I86
sg17
I37
sg18
I2
sg19
I5
sg20
I13
sg21
F0.28899999999999998
sg22
F2
sg23
F0.33200000000000002
sba(iPlayer
Player
p105
(dp106
g7
I0
sg8
I82
sg9
I595
sg10
S'Robinson Cano'
p107
sg12
I61
sg13
F0.83599999999999997
sg14
I14
sS'h'
I187
sg15
F0.45400000000000001
sS'r'
I77
sg16
I68
sg17
I37
sg18
I2
sg19
I3
sg20
I10
sg21
F0.314
sg22
F6.4000000000000004
sg23
F0.38200000000000001
sba(iPlayer
Player
p108
(dp109
g7
I0
sg8
I59
sg9
I595
sg10
S'Matt Carpenter'
p110
sg12
I95
sg13
F0.75
sg14
I8
sS'h'
I162
sg15
F0.375
sS'r'
I99
sg16
I111
sg17
I33
sg18
I2
sg19
I3
sg20
I5
sg21
F0.27200000000000002
sg22
F3
sg23
F0.375
sba(iPlayer
Player
p111
(dp112
g7
I0
sg8
I91
sg9
I593
sg10
S'Ian Desmond'
p113
sg12
I46
sg13
F0.74299999999999999
sg14
I24
sS'h'
I151
sg15
F0.42999999999999999
sS'r'
I73
sg16
I183
sg17
I26
sg18
I3
sg19
I5
sg20
I24
sg21
F0.255
sg22
F3.7999999999999998
sg23
F0.313
sba(iPlayer
Player
p114
(dp115
g7
I0
sg8
I72
sg9
I593
sg10
S'Charlie Blackmon'
p116
sg12
I31
sg13
F0.77500000000000002
sg14
I19
sS'h'
I171
sg15
F0.44
sS'r'
I82
sg16
I96
sg17
I27
sg18
I3
sg19
I10
sg20
I28
sg21
F0.28799999999999998
sg22
F2.1000000000000001
sg23
F0.33500000000000002
sba(iPlayer
Player
p117
(dp118
g7
I0
sg8
I85
sg9
I591
sg10
S'Marlon Byrd'
p119
sg12
I35
sg13
F0.75700000000000001
sg14
I25
sS'h'
I156
sg15
F0.44500000000000001
sS'r'
I71
sg16
I185
sg17
I28
sg18
I2
sg19
I2
sg20
I3
sg21
F0.26400000000000001
sg22
F2.6000000000000001
sg23
F0.312
sba(iPlayer
Player
p120
(dp121
g7
I0
sg8
I116
sg9
I591
sg10
S'Adrian Gonzalez'
p122
sg12
I56
sg13
F0.81699999999999995
sg14
I27
sS'h'
I163
sg15
F0.48199999999999998
sS'r'
I83
sg16
I112
sg17
I41
sg18
I0
sg19
I1
sg20
I1
sg21
F0.27600000000000002
sg22
F3.8999999999999999
sg23
F0.33500000000000002
sba(iPlayer
Player
p123
(dp124
g7
I0
sg8
I96
sg9
I590
sg10
S'Kyle Seager'
p125
sg12
I52
sg13
F0.78800000000000003
sg14
I25
sS'h'
I158
sg15
F0.45400000000000001
sS'r'
I71
sg16
I118
sg17
I27
sg18
I4
sg19
I5
sg20
I7
sg21
F0.26800000000000002
sg22
F5.7999999999999998
sg23
F0.33400000000000002
sba(iPlayer
Player
p126
(dp127
g7
I0
sg8
I78
sg9
I589
sg10
S'Chase Utley'
p128
sg12
I53
sg13
F0.746
sg14
I11
sS'h'
I159
sg15
F0.40699999999999997
sS'r'
I74
sg16
I85
sg17
I36
sg18
I6
sg19
I1
sg20
I10
sg21
F0.27000000000000002
sg22
F3.6000000000000001
sg23
F0.33900000000000002
sba(iPlayer
Player
p129
(dp130
g7
I0
sg8
I68
sg9
I589
sg10
S'Erick Aybar'
p131
sg12
I36
sg13
F0.69999999999999996
sg14
I7
sS'h'
I164
sg15
F0.379
sS'r'
I77
sg16
I62
sg17
I30
sg18
I4
sg19
I9
sg20
I16
sg21
F0.27800000000000002
sg22
F3.8999999999999999
sg23
F0.32100000000000001
sba(iPlayer
Player
p132
(dp133
g7
I0
sg8
I73
sg9
I588
sg10
S'Pablo Sandoval'
p134
sg12
I39
sg13
F0.73899999999999999
sg14
I16
sS'h'
I164
sg15
F0.41499999999999998
sS'r'
I68
sg16
I85
sg17
I26
sg18
I3
sg19
I0
sg20
I0
sg21
F0.27900000000000003
sg22
F3.3999999999999999
sg23
F0.32400000000000001
sba(iPlayer
Player
p135
(dp136
g7
I0
sg8
I69
sg9
I585
sg10
S'Jonathan Lucroy'
p137
sg12
I66
sg13
F0.83699999999999997
sg14
I13
sS'h'
I176
sg15
F0.46500000000000002
sS'r'
I73
sg16
I71
sg17
I53
sg18
I2
sg19
I4
sg20
I4
sg21
F0.30099999999999999
sg22
F6.7000000000000002
sg23
F0.373
sba(iPlayer
Player
p138
(dp139
g7
I0
sg8
I58
sg9
I582
sg10
S'Chris Johnson'
p140
sg12
I23
sg13
F0.65300000000000002
sg14
I10
sS'h'
I153
sg15
F0.36099999999999999
sS'r'
I43
sg16
I159
sg17
I27
sg18
I0
sg19
I0
sg20
I6
sg21
F0.26300000000000001
sg22
F-1.3
sg23
F0.29199999999999998
sba(iPlayer
Player
p141
(dp142
g7
I0
sg8
I103
sg9
I553
sg10
S'Jose Bautista'
p143
sg12
I104
sg13
F0.92800000000000005
sg14
I35
sS'h'
I158
sg15
F0.52400000000000002
sS'r'
I101
sg16
I96
sg17
I27
sg18
I0
sg19
I2
sg20
I6
sg21
F0.28599999999999998
sg22
F6
sg23
F0.40300000000000002
sba(iPlayer
Player
p144
(dp145
g7
I0
sg8
I73
sg9
I574
sg10
S'Carlos Gomez'
p146
sg12
I47
sg13
F0.83299999999999996
sg14
I23
sS'h'
I163
sg15
F0.47699999999999998
sS'r'
I95
sg16
I141
sg17
I34
sg18
I4
sg19
I12
sg20
I34
sg21
F0.28399999999999997
sg22
F4.7999999999999998
sg23
F0.35599999999999998
sba(iPlayer
Player
p147
(dp148
g7
I0
sg8
I54
sg9
I582
sg10
S'Christian Yelich'
p149
sg12
I70
sg13
F0.76400000000000001
sg14
I9
sS'h'
I165
sg15
F0.40200000000000002
sS'r'
I94
sg16
I137
sg17
I30
sg18
I6
sg19
I7
sg20
I21
sg21
F0.28399999999999997
sg22
F3.6000000000000001
sg23
F0.36199999999999999
sba(iPlayer
Player
p150
(dp151
g7
I0
sg8
I69
sg9
I558
sg10
S'Yasiel Puig'
p152
sg12
I67
sg13
F0.86299999999999999
sg14
I16
sS'h'
I165
sg15
F0.47999999999999998
sS'r'
I92
sg16
I124
sg17
I37
sg18
I9
sg19
I7
sg20
I11
sg21
F0.29599999999999999
sg22
F5.4000000000000004
sg23
F0.38200000000000001
sba(iPlayer
Player
p153
(dp154
g7
I0
sg8
I58
sg9
I493
sg10
S'Kole Calhoun'
p155
sg12
I38
sg13
F0.77600000000000002
sg14
I17
sS'h'
I134
sg15
F0.45000000000000001
sS'r'
I90
sg16
I104
sg17
I31
sg18
I3
sg19
I3
sg20
I5
sg21
F0.27200000000000002
sg22
F4.0999999999999996
sg23
F0.32500000000000001
sba(iPlayer
Player
p156
(dp157
g7
I0
sg8
I83
sg9
I548
sg10
S'Andrew McCutchen'
p158
sg12
I84
sg13
F0.95199999999999996
sg14
I25
sS'h'
I172
sg15
F0.54200000000000004
sS'r'
I89
sg16
I115
sg17
I38
sg18
I6
sg19
I3
sg20
I18
sg21
F0.314
sg22
F6.4000000000000004
sg23
F0.40999999999999998
sba(iPlayer
Player
p159
(dp160
g7
I0
sg8
I105
sg9
I539
sg10
S'Giancarlo Stanton'
p161
sg12
I94
sg13
F0.94999999999999996
sg14
I37
sS'h'
I155
sg15
F0.55500000000000005
sS'r'
I89
sg16
I170
sg17
I31
sg18
I1
sg19
I1
sg20
I13
sg21
F0.28799999999999998
sg22
F6.5
sg23
F0.39500000000000002
sba(iPlayer
Player
p162
(dp163
g7
I0
sg8
I78
sg9
I524
sg10
S'Anthony Rizzo'
p164
sg12
I73
sg13
F0.91300000000000003
sg14
I32
sS'h'
I150
sg15
F0.52700000000000002
sS'r'
I89
sg16
I116
sg17
I28
sg18
I1
sg19
I4
sg20
I5
sg21
F0.28599999999999998
sg22
F5.0999999999999996
sg23
F0.38600000000000001
sba(iPlayer
Player
p165
(dp166
g7
I0
sg8
I103
sg9
I561
sg10
S'Victor Martinez'
p167
sg12
I70
sg13
F0.97399999999999998
sg14
I32
sS'h'
I188
sg15
F0.56499999999999995
sS'r'
I87
sg16
I42
sg17
I33
sg18
I0
sg19
I2
sg20
I3
sg21
F0.33500000000000002
sg22
F5.2999999999999998
sg23
F0.40899999999999997
sba(iPlayer
Player
p168
(dp169
g7
I0
sg8
I74
sg9
I563
sg10
S'Alex Gordon'
p170
sg12
I65
sg13
F0.78300000000000003
sg14
I19
sS'h'
I150
sg15
F0.432
sS'r'
I87
sg16
I126
sg17
I34
sg18
I1
sg19
I3
sg20
I12
sg21
F0.26600000000000001
sg22
F6.5999999999999996
sg23
F0.35099999999999998
sba(iPlayer
Player
p171
(dp172
g7
I0
sg8
I58
sg9
I555
sg10
S'Brett Gardner'
p173
sg12
I56
sg13
F0.749
sg14
I17
sS'h'
I142
sg15
F0.42199999999999999
sS'r'
I87
sg16
I134
sg17
I25
sg18
I8
sg19
I5
sg20
I21
sg21
F0.25600000000000001
sg22
F4
sg23
F0.32700000000000001
sba(iPlayer
Player
p174
(dp175
g7
I0
sg8
I82
sg9
I534
sg10
S'Jayson Werth'
p176
sg12
I83
sg13
F0.84899999999999998
sg14
I16
sS'h'
I156
sg15
F0.45500000000000002
sS'r'
I85
sg16
I113
sg17
I37
sg18
I1
sg19
I1
sg20
I9
sg21
F0.29199999999999998
sg22
F4
sg23
F0.39400000000000002
sba(iPlayer
Player
p177
(dp178
g7
I0
sg8
I90
sg9
I574
sg10
S'Matt Holliday'
p179
sg12
I74
sg13
F0.81100000000000005
sg14
I20
sS'h'
I156
sg15
F0.441
sS'r'
I83
sg16
I100
sg17
I37
sg18
I0
sg19
I1
sg20
I4
sg21
F0.27200000000000002
sg22
F3.3999999999999999
sg23
F0.37
sba(iPlayer
Player
p180
(dp181
g7
I0
sg8
I52
sg9
I570
sg10
S'Ben Zobrist'
p182
sg12
I75
sg13
F0.749
sg14
I10
sS'h'
I155
sg15
F0.39500000000000002
sS'r'
I83
sg16
I84
sg17
I34
sg18
I3
sg19
I5
sg20
I10
sg21
F0.27200000000000002
sg22
F5
sg23
F0.35399999999999998
sba(iPlayer
Player
p183
(dp184
g7
I0
sg8
I73
sg9
I568
sg10
S'Melky Cabrera'
p185
sg12
I43
sg13
F0.80800000000000005
sg14
I16
sS'h'
I171
sg15
F0.45800000000000002
sS'r'
I81
sg16
I67
sg17
I35
sg18
I3
sg19
I2
sg20
I6
sg21
F0.30099999999999999
sg22
F3.1000000000000001
sg23
F0.35099999999999998
sba(iPlayer
Player
p186
(dp187
g7
I0
sg8
I77
sg9
I549
sg10
S'Adrian Beltre'
p188
sg12
I57
sg13
F0.879
sg14
I19
sS'h'
I178
sg15
F0.49199999999999999
sS'r'
I79
sg16
I74
sg17
I33
sg18
I1
sg19
I1
sg20
I1
sg21
F0.32400000000000001
sg22
F7
sg23
F0.38800000000000001
sba(iPlayer
Player
p189
(dp190
g7
I0
sg8
I107
sg9
I556
sg10
S'Jose Abreu'
p191
sg12
I51
sg13
F0.96399999999999997
sg14
I36
sS'h'
I176
sg15
F0.58099999999999996
sS'r'
I80
sg16
I131
sg17
I35
sg18
I2
sg19
I1
sg20
I3
sg21
F0.317
sg22
F5.5
sg23
F0.38300000000000001
sba(iPlayer
Player
p192
(dp193
g7
I0
sg8
I89
sg9
I547
sg10
S'Buster Posey'
p194
sg12
I47
sg13
F0.85399999999999998
sg14
I22
sS'h'
I170
sg15
F0.48999999999999999
sS'r'
I72
sg16
I69
sg17
I28
sg18
I2
sg19
I1
sg20
I0
sg21
F0.311
sg22
F5.2000000000000002
sg23
F0.36399999999999999
sba(iPlayer
Player
p195
(dp196
g7
I0
sg8
I50
sg9
I579
sg10
S'Alcides Escobar'
p197
sg12
I23
sg13
F0.69399999999999995
sg14
I3
sS'h'
I165
sg15
F0.377
sS'r'
I74
sg16
I83
sg17
I34
sg18
I5
sg19
I6
sg20
I31
sg21
F0.28499999999999998
sg22
F2.3999999999999999
sg23
F0.317
sba(iPlayer
Player
p198
(dp199
g7
I0
sg8
I52
sg9
I520
sg10
S'Josh Harrison'
p200
sg12
I22
sg13
F0.83699999999999997
sg14
I13
sS'h'
I164
sg15
F0.48999999999999999
sS'r'
I77
sg16
I81
sg17
I38
sg18
I7
sg19
I7
sg20
I18
sg21
F0.315
sg22
F5.2999999999999998
sg23
F0.34699999999999998
sba(iPlayer
Player
p201
(dp202
g7
I0
sg8
I80
sg9
I520
sg10
S'Trevor Plouffe'
p203
sg12
I53
sg13
F0.751
sg14
I14
sS'h'
I134
sg15
F0.42299999999999999
sS'r'
I69
sg16
I109
sg17
I40
sg18
I2
sg19
I1
sg20
I2
sg21
F0.25800000000000001
sg22
F3.8999999999999999
sg23
F0.32800000000000001
sba(iPlayer
Player
p204
(dp205
g7
I0
sg8
I69
sg9
I406
sg10
S'Paul Goldschmidt'
p206
sg12
I64
sg13
F0.93799999999999994
sg14
I19
sS'h'
I122
sg15
F0.54200000000000004
sS'r'
I75
sg16
I110
sg17
I39
sg18
I1
sg19
I3
sg20
I9
sg21
F0.29999999999999999
sg22
F4.5
sg23
F0.39600000000000002
sba(iPlayer
Player
p207
(dp208
g7
I0
sg8
I75
sg9
I560
sg10
S'Jhonny Peralta'
p209
sg12
I58
sg13
F0.77900000000000003
sg14
I21
sS'h'
I147
sg15
F0.443
sS'r'
I61
sg16
I112
sg17
I38
sg18
I0
sg19
I2
sg20
I3
sg21
F0.26300000000000001
sg22
F5.7999999999999998
sg23
F0.33600000000000002
sba(iPlayer
Player
p210
(dp211
g7
I0
sg8
I89
sg9
I541
sg10
S'Matt Kemp'
p212
sg12
I52
sg13
F0.85199999999999998
sg14
I25
sS'h'
I155
sg15
F0.50600000000000001
sS'r'
I77
sg16
I145
sg17
I38
sg18
I3
sg19
I5
sg20
I8
sg21
F0.28699999999999998
sg22
F1.1000000000000001
sg23
F0.34599999999999997
sba(iPlayer
Player
p213
(dp214
g7
I0
sg8
I69
sg9
I501
sg10
S'Khris Davis'
p215
sg12
I32
sg13
F0.75600000000000001
sg14
I22
sS'h'
I122
sg15
F0.45700000000000002
sS'r'
I70
sg16
I122
sg17
I37
sg18
I2
sg19
I1
sg20
I4
sg21
F0.24399999999999999
sg22
F2.1000000000000001
sg23
F0.29899999999999999
sba(iPlayer
Player
p216
(dp217
g7
I0
sg8
I71
sg9
I449
sg10
S'Hanley Ramirez'
p218
sg12
I56
sg13
F0.81699999999999995
sg14
I13
sS'h'
I127
sg15
F0.44800000000000001
sS'r'
I64
sg16
I84
sg17
I35
sg18
I0
sg19
I5
sg20
I14
sg21
F0.28299999999999997
sg22
F3.5
sg23
F0.36899999999999999
sba(iPlayer
Player
p219
(dp220
g7
I0
sg8
I37
sg9
I433
sg10
S'Eduardo Escobar'
p221
sg12
I24
sg13
F0.72099999999999997
sg14
I6
sS'h'
I119
sg15
F0.40600000000000003
sS'r'
I52
sg16
I93
sg17
I35
sg18
I2
sg19
I1
sg20
I1
sg21
F0.27500000000000002
sg22
F1.1000000000000001
sg23
F0.315
sba(iPlayer
Player
p222
(dp223
g7
I0
sg8
I58
sg9
I503
sg10
S'Eric Hosmer'
p224
sg12
I35
sg13
F0.71599999999999997
sg14
I9
sS'h'
I136
sg15
F0.39800000000000002
sS'r'
I54
sg16
I93
sg17
I35
sg18
I1
sg19
I2
sg20
I4
sg21
F0.27000000000000002
sg22
F0.80000000000000004
sg23
F0.318
sba(iPlayer
Player
p225
(dp226
g7
I0
sg8
I61
sg9
I452
sg10
S'Kurt Suzuki'
p227
sg12
I34
sg13
F0.72699999999999998
sg14
I3
sS'h'
I130
sg15
F0.38300000000000001
sS'r'
I37
sg16
I46
sg17
I34
sg18
I0
sg19
I1
sg20
I0
sg21
F0.28799999999999998
sg22
F2.2000000000000002
sg23
F0.34499999999999997
sba(iPlayer
Player
p228
(dp229
g7
I0
sg8
I102
sg9
I566
sg10
S'Justin Upton'
p230
sg12
I60
sg13
F0.83299999999999996
sg14
I29
sS'h'
I153
sg15
F0.49099999999999999
sS'r'
I77
sg16
I171
sg17
I34
sg18
I2
sg19
I4
sg20
I8
sg21
F0.27000000000000002
sg22
F3.2999999999999998
sg23
F0.34200000000000003
sba(iPlayer
Player
p231
(dp232
g7
I0
sg8
I61
sg9
I432
sg10
S'Nolan Arenado'
p233
sg12
I25
sg13
F0.82799999999999996
sg14
I18
sS'h'
I124
sg15
F0.5
sS'r'
I58
sg16
I58
sg17
I34
sg18
I2
sg19
I1
sg20
I2
sg21
F0.28699999999999998
sg22
F4.0999999999999996
sg23
F0.32800000000000001
sba(iPlayer
Player
p234
(dp235
g7
I0
sg8
I68
sg9
I527
sg10
S'Matt Adams'
p236
sg12
I26
sg13
F0.77900000000000003
sg14
I15
sS'h'
I152
sg15
F0.45700000000000002
sS'r'
I55
sg16
I114
sg17
I34
sg18
I5
sg19
I2
sg20
I3
sg21
F0.28799999999999998
sg22
F2.2999999999999998
sg23
F0.32100000000000001
sba(iPlayer
Player
p237
(dp238
g7
I0
sg8
I28
sg9
I444
sg10
S'Michael Bourn'
p239
sg12
I35
sg13
F0.67400000000000004
sg14
I3
sS'h'
I114
sg15
F0.35999999999999999
sS'r'
I57
sg16
I114
sg17
I17
sg18
I10
sg19
I6
sg20
I10
sg21
F0.25700000000000001
sg22
F1
sg23
F0.314
sba(iPlayer
Player
p240
(dp241
g7
I0
sg8
I69
sg9
I491
sg10
S'Brandon Crawford'
p242
sg12
I59
sg13
F0.71299999999999997
sg14
I10
sS'h'
I121
sg15
F0.38900000000000001
sS'r'
I54
sg16
I129
sg17
I20
sg18
I10
sg19
I3
sg20
I5
sg21
F0.246
sg22
F3.2000000000000002
sg23
F0.32400000000000001
sba(iPlayer
Player
p243
(dp244
g7
I0
sg8
I34
sg9
I536
sg10
S'Adeiny Hechavarria'
p245
sg12
I26
sg13
F0.66400000000000003
sg14
I1
sS'h'
I148
sg15
F0.35599999999999998
sS'r'
I53
sg16
I86
sg17
I20
sg18
I10
sg19
I5
sg20
I7
sg21
F0.27600000000000002
sg22
F0.59999999999999998
sg23
F0.308
sba(iPlayer
Player
p246
(dp247
g7
I0
sg8
I35
sg9
I486
sg10
S'Adam Eaton'
p248
sg12
I43
sg13
F0.76300000000000001
sg14
I1
sS'h'
I146
sg15
F0.40100000000000002
sS'r'
I76
sg16
I83
sg17
I26
sg18
I10
sg19
I9
sg20
I15
sg21
F0.29999999999999999
sg22
F5.2000000000000002
sg23
F0.36199999999999999
sba(iPlayer
Player
p249
(dp250
g7
I0
sg8
I36
sg9
I329
sg10
S'David Peralta'
p251
sg12
I16
sg13
F0.77000000000000002
sg14
I8
sS'h'
I94
sg15
F0.45000000000000001
sS'r'
I40
sg16
I60
sg17
I12
sg18
I9
sg19
I3
sg20
I6
sg21
F0.28599999999999998
sg22
F1.7
sg23
F0.32000000000000001
sba(iPlayer
Player
p252
(dp253
g7
I0
sg8
I54
sg9
I492
sg10
S'Alex Rios'
p254
sg12
I23
sg13
F0.70899999999999996
sg14
I4
sS'h'
I138
sg15
F0.39800000000000002
sS'r'
I54
sg16
I93
sg17
I30
sg18
I8
sg19
I9
sg20
I17
sg21
F0.28000000000000003
sg22
F0.59999999999999998
sg23
F0.311
sba(iPlayer
Player
p255
(dp256
g7
I0
sg8
I41
sg9
I477
sg10
S'Alejandro De Aza'
p257
sg12
I39
sg13
F0.69999999999999996
sg14
I8
sS'h'
I120
sg15
F0.38600000000000001
sS'r'
I56
sg16
I119
sg17
I24
sg18
I8
sg19
I10
sg20
I17
sg21
F0.252
sg22
F0.80000000000000004
sg23
F0.314
sba(iPlayer
Player
p258
(dp259
g7
I0
sg8
I48
sg9
I563
sg10
S'Billy Hamilton'
p260
sg12
I34
sg13
F0.64800000000000002
sg14
I6
sS'h'
I141
sg15
F0.35499999999999998
sS'r'
I72
sg16
I117
sg17
I25
sg18
I8
sg19
I23
sg20
I56
sg21
F0.25
sg22
F2.6000000000000001
sg23
F0.29199999999999998
sba(iPlayer
Player
p261
(dp262
g7
I0
sg8
I35
sg9
I331
sg10
S'Kevin Kiermaier'
p263
sg12
I23
sg13
F0.76500000000000001
sg14
I10
sS'h'
I87
sg15
F0.45000000000000001
sS'r'
I35
sg16
I71
sg17
I16
sg18
I8
sg19
I4
sg20
I5
sg21
F0.26300000000000001
sg22
F3.7000000000000002
sg23
F0.315
sba(iPlayer
Player
p264
(dp265
g7
I0
sg8
I54
sg9
I363
sg10
S'Josh Reddick'
p266
sg12
I28
sg13
F0.76300000000000001
sg14
I12
sS'h'
I96
sg15
F0.44600000000000001
sS'r'
I53
sg16
I63
sg17
I16
sg18
I7
sg19
I1
sg20
I1
sg21
F0.26400000000000001
sg22
F3.5
sg23
F0.316
sba(iPlayer
Player
p267
(dp268
g7
I0
sg8
I40
sg9
I405
sg10
S'Danny Santana'
p269
sg12
I19
sg13
F0.82399999999999995
sg14
I7
sS'h'
I129
sg15
F0.47199999999999998
sS'r'
I70
sg16
I98
sg17
I27
sg18
I7
sg19
I4
sg20
I20
sg21
F0.31900000000000001
sg22
F3.8999999999999999
sg23
F0.35299999999999998
sba(iPlayer
Player
p270
(dp271
g7
I0
sg8
I40
sg9
I533
sg10
S'Leonys Martin'
p272
sg12
I39
sg13
F0.68899999999999995
sg14
I7
sS'h'
I146
sg15
F0.36399999999999999
sS'r'
I68
sg16
I114
sg17
I13
sg18
I7
sg19
I12
sg20
I31
sg21
F0.27400000000000002
sg22
F4.5999999999999996
sg23
F0.32500000000000001
sba(iPlayer
Player
p273
(dp274
g7
I0
sg8
I33
sg9
I309
sg10
S'Josh Rutledge'
p275
sg12
I20
sg13
F0.72799999999999998
sg14
I4
sS'h'
I83
sg15
F0.40500000000000003
sS'r'
I44
sg16
I83
sg17
I16
sg18
I7
sg19
I3
sg20
I2
sg21
F0.26900000000000002
sg22
F-0.69999999999999996
sg23
F0.32300000000000001
sba(iPlayer
Player
p276
(dp277
g7
I0
sg8
I48
sg9
I386
sg10
S'Rougned Odor'
p278
sg12
I17
sg13
F0.69799999999999995
sg14
I9
sS'h'
I100
sg15
F0.40200000000000002
sS'r'
I39
sg16
I71
sg17
I14
sg18
I7
sg19
I7
sg20
I4
sg21
F0.25900000000000001
sg22
F0.10000000000000001
sg23
F0.29699999999999999
sba(iPlayer
Player
p279
(dp280
g7
I0
sg8
I42
sg9
I341
sg10
S'Andre Ethier'
p281
sg12
I31
sg13
F0.69099999999999995
sg14
I4
sS'h'
I85
sg15
F0.37
sS'r'
I29
sg16
I74
sg17
I17
sg18
I6
sg19
I2
sg20
I2
sg21
F0.249
sg22
F-0
sg23
F0.32200000000000001
sba(iPlayer
Player
p282
(dp283
g7
I0
sg8
I38
sg9
I393
sg10
S'Gregor Blanco'
p284
sg12
I41
sg13
F0.70699999999999996
sg14
I5
sS'h'
I102
sg15
F0.374
sS'r'
I51
sg16
I77
sg17
I18
sg18
I6
sg19
I5
sg20
I16
sg21
F0.26000000000000001
sg22
F1.2
sg23
F0.33300000000000002
sba(iPlayer
Player
p285
(dp286
g7
I0
sg8
I81
sg9
I530
sg10
S'Ryan Braun'
p287
sg12
I41
sg13
F0.77700000000000002
sg14
I19
sS'h'
I141
sg15
F0.45300000000000001
sS'r'
I68
sg16
I113
sg17
I30
sg18
I6
sg19
I5
sg20
I11
sg21
F0.26600000000000001
sg22
F1
sg23
F0.32400000000000001
sba(iPlayer
Player
p288
(dp289
g7
I0
sg8
I24
sg9
I265
sg10
S'A.J. Pollock'
p290
sg12
I19
sg13
F0.85099999999999998
sg14
I7
sS'h'
I80
sg15
F0.498
sS'r'
I41
sg16
I46
sg17
I19
sg18
I6
sg19
I3
sg20
I14
sg21
F0.30199999999999999
sg22
F3.8999999999999999
sg23
F0.35299999999999998
sba(iPlayer
Player
p291
(dp292
g7
I0
sg8
I56
sg9
I495
sg10
S'Starling Marte'
p293
sg12
I33
sg13
F0.80800000000000005
sg14
I13
sS'h'
I144
sg15
F0.45300000000000001
sS'r'
I73
sg16
I131
sg17
I29
sg18
I6
sg19
I11
sg20
I30
sg21
F0.29099999999999998
sg22
F5.0999999999999996
sg23
F0.35599999999999998
sba(iPlayer
Player
p294
(dp295
g7
I0
sg8
I26
sg9
I310
sg10
S'Chris Owings'
p296
sg12
I16
sg13
F0.70599999999999996
sg14
I6
sS'h'
I81
sg15
F0.40600000000000003
sS'r'
I34
sg16
I67
sg17
I15
sg18
I6
sg19
I1
sg20
I8
sg21
F0.26100000000000001
sg22
F1.8999999999999999
sg23
F0.29999999999999999
sba(iPlayer
Player
p297
(dp298
g7
I0
sg8
I31
sg9
I513
sg10
S'Jean Segura'
p299
sg12
I28
sg13
F0.61399999999999999
sg14
I5
sS'h'
I126
sg15
F0.32600000000000001
sS'r'
I61
sg16
I70
sg17
I14
sg18
I6
sg19
I9
sg20
I20
sg21
F0.246
sg22
F0.59999999999999998
sg23
F0.28899999999999998
sba(iPlayer
Player
p300
(dp301
g7
I0
sg8
I76
sg9
I436
sg10
S'Corey Dickerson'
p302
sg12
I37
sg13
F0.93100000000000005
sg14
I24
sS'h'
I136
sg15
F0.56699999999999995
sS'r'
I74
sg16
I101
sg17
I27
sg18
I6
sg19
I7
sg20
I8
sg21
F0.312
sg22
F3.3999999999999999
sg23
F0.36399999999999999
sba(iPlayer
Player
p303
(dp304
g7
I0
sg8
I43
sg9
I491
sg10
S'Norichika Aoki'
p305
sg12
I43
sg13
F0.70999999999999996
sg14
I1
sS'h'
I140
sg15
F0.35999999999999999
sS'r'
I63
sg16
I49
sg17
I22
sg18
I6
sg19
I8
sg20
I17
sg21
F0.28499999999999998
sg22
F1
sg23
F0.34899999999999998
sba(iPlayer
Player
p306
(dp307
g7
I0
sg8
I35
sg9
I519
sg10
S'B.J. Upton'
p308
sg12
I57
sg13
F0.62
sg14
I12
sS'h'
I108
sg15
F0.33300000000000002
sS'r'
I67
sg16
I173
sg17
I19
sg18
I5
sg19
I7
sg20
I20
sg21
F0.20799999999999999
sg22
F-0.40000000000000002
sg23
F0.28699999999999998
sba(iPlayer
Player
p309
(dp310
g7
I0
sg8
I70
sg9
I575
sg10
S'Jacoby Ellsbury'
p311
sg12
I49
sg13
F0.747
sg14
I16
sS'h'
I156
sg15
F0.41899999999999998
sS'r'
I71
sg16
I93
sg17
I27
sg18
I5
sg19
I5
sg20
I39
sg21
F0.27100000000000002
sg22
F3.2999999999999998
sg23
F0.32800000000000001
sba(iPlayer
Player
p312
(dp313
g7
I0
sg8
I88
sg9
I507
sg10
S'Chris Carter'
p314
sg12
I56
sg13
F0.79900000000000004
sg14
I37
sS'h'
I115
sg15
F0.49099999999999999
sS'r'
I68
sg16
I182
sg17
I21
sg18
I1
sg19
I2
sg20
I5
sg21
F0.22700000000000001
sg22
F1.8999999999999999
sg23
F0.308
sba(iPlayer
Player
p315
(dp316
g7
I0
sg8
I104
sg9
I518
sg10
S'David Ortiz'
p317
sg12
I75
sg13
F0.873
sg14
I35
sS'h'
I136
sg15
F0.51700000000000002
sS'r'
I59
sg16
I95
sg17
I27
sg18
I0
sg19
I0
sg20
I0
sg21
F0.26300000000000001
sg22
F2.8999999999999999
sg23
F0.35499999999999998
sba(iPlayer
Player
p318
(dp319
g7
I0
sg8
I98
sg9
I477
sg10
S'Edwin Encarnacion'
p320
sg12
I62
sg13
F0.90100000000000002
sg14
I34
sS'h'
I128
sg15
F0.54700000000000004
sS'r'
I75
sg16
I82
sg17
I27
sg18
I2
sg19
I0
sg20
I2
sg21
F0.26800000000000002
sg22
F3.6000000000000001
sg23
F0.35399999999999998
sba(iPlayer
Player
p321
(dp322
g7
I0
sg8
I92
sg9
I514
sg10
S'Lucas Duda'
p323
sg12
I69
sg13
F0.82999999999999996
sg14
I30
sS'h'
I130
sg15
F0.48099999999999998
sS'r'
I74
sg16
I135
sg17
I27
sg18
I0
sg19
I2
sg20
I3
sg21
F0.253
sg22
F3.7000000000000002
sg23
F0.34899999999999998
sba(iPlayer
Player
p324
(dp325
g7
I0
sg8
I85
sg9
I541
sg10
S'Carlos Santana'
p326
sg12
I113
sg13
F0.79200000000000004
sg14
I27
sS'h'
I125
sg15
F0.42699999999999999
sS'r'
I68
sg16
I124
sg17
I25
sg18
I0
sg19
I2
sg20
I5
sg21
F0.23100000000000001
sg22
F3.1000000000000001
sg23
F0.36499999999999999
sba(iPlayer
Player
p327
(dp328
g7
I0
sg8
I92
sg9
I494
sg10
S'Adam LaRoche'
p329
sg12
I82
sg13
F0.81699999999999995
sg14
I26
sS'h'
I128
sg15
F0.45500000000000002
sS'r'
I73
sg16
I108
sg17
I19
sg18
I0
sg19
I0
sg20
I3
sg21
F0.25900000000000001
sg22
F2.2000000000000002
sg23
F0.36199999999999999
sba(iPlayer
Player
p330
(dp331
g7
I0
sg8
I72
sg9
I450
sg10
S'Chris Davis'
p332
sg12
I60
sg13
F0.70399999999999996
sg14
I26
sS'h'
I88
sg15
F0.40400000000000003
sS'r'
I65
sg16
I173
sg17
I16
sg18
I0
sg19
I1
sg20
I2
sg21
F0.19600000000000001
sg22
F1.8
sg23
F0.29999999999999999
sba(iPlayer
Player
p333
(dp334
g7
I0
sg8
I81
sg9
I500
sg10
S'Brandon Moss'
p335
sg12
I67
sg13
F0.77200000000000002
sg14
I25
sS'h'
I117
sg15
F0.438
sS'r'
I70
sg16
I153
sg17
I23
sg18
I2
sg19
I0
sg20
I1
sg21
F0.23400000000000001
sg22
F2.6000000000000001
sg23
F0.33400000000000002
sba(iPlayer
Player
p336
(dp337
g7
I0
sg8
I80
sg9
I384
sg10
S'Devin Mesoraco'
p338
sg12
I41
sg13
F0.89300000000000002
sg14
I25
sS'h'
I105
sg15
F0.53400000000000003
sS'r'
I54
sg16
I103
sg17
I25
sg18
I0
sg19
I3
sg20
I1
sg21
F0.27300000000000002
sg22
F4.7999999999999998
sg23
F0.35899999999999999
sba(iPlayer
Player
p339
(dp340
g7
I0
sg8
I95
sg9
I569
sg10
S'Ryan Howard'
p341
sg12
I67
sg13
F0.68999999999999995
sg14
I23
sS'h'
I127
sg15
F0.38
sS'r'
I65
sg16
I190
sg17
I18
sg18
I1
sg19
I0
sg20
I0
sg21
F0.223
sg22
F-1.1000000000000001
sg23
F0.31
sba(iPlayer
Player
p342
(dp343
g7
I0
sg8
I75
sg9
I495
sg10
S'Brian McCann'
p344
sg12
I32
sg13
F0.69199999999999995
sg14
I23
sS'h'
I115
sg15
F0.40600000000000003
sS'r'
I57
sg16
I77
sg17
I15
sg18
I1
sg19
I0
sg20
I0
sg21
F0.23200000000000001
sg22
F1.8
sg23
F0.28599999999999998
sba(iPlayer
Player
p345
(dp346
g7
I0
sg8
I76
sg9
I512
sg10
S'Neil Walker'
p347
sg12
I45
sg13
F0.80900000000000005
sg14
I23
sS'h'
I139
sg15
F0.46700000000000003
sS'r'
I74
sg16
I88
sg17
I25
sg18
I3
sg19
I2
sg20
I2
sg21
F0.27100000000000002
sg22
F3.6000000000000001
sg23
F0.34200000000000003
sba(iPlayer
Player
p348
(dp349
g7
I0
sg8
I76
sg9
I441
sg10
S'J.D. Martinez'
p350
sg12
I30
sg13
F0.91200000000000003
sg14
I23
sS'h'
I139
sg15
F0.55300000000000005
sS'r'
I57
sg16
I126
sg17
I30
sg18
I3
sg19
I3
sg20
I6
sg21
F0.315
sg22
F4.2000000000000002
sg23
F0.35799999999999998
sba(iPlayer
Player
p351
(dp352
g7
I0
sg8
I85
sg9
I565
sg10
S'Marcell Ozuna'
p353
sg12
I41
sg13
F0.77200000000000002
sg14
I23
sS'h'
I152
sg15
F0.45500000000000002
sS'r'
I72
sg16
I164
sg17
I26
sg18
I5
sg19
I1
sg20
I3
sg21
F0.26900000000000002
sg22
F4.4000000000000004
sg23
F0.317
sba(iPlayer
Player
p354
(dp355
g7
I0
sg8
I64
sg9
I429
sg10
S'Adam Dunn'
p356
sg12
I71
sg13
F0.752
sg14
I22
sS'h'
I94
sg15
F0.41499999999999998
sS'r'
I49
sg16
I159
sg17
I18
sg18
I0
sg19
I1
sg20
I1
sg21
F0.219
sg22
F0.29999999999999999
sg23
F0.33700000000000002
sba(iPlayer
Player
p357
(dp358
g7
I0
sg8
I62
sg9
I440
sg10
S'Mark Teixeira'
p359
sg12
I58
sg13
F0.71099999999999997
sg14
I22
sS'h'
I95
sg15
F0.39800000000000002
sS'r'
I56
sg16
I109
sg17
I14
sg18
I0
sg19
I1
sg20
I1
sg21
F0.216
sg22
F1
sg23
F0.313
sba(iPlayer
Player
p360
(dp361
g7
I0
sg8
I45
sg9
I378
sg10
S'Mark Reynolds'
p362
sg12
I47
sg13
F0.68100000000000005
sg14
I22
sS'h'
I74
sg15
F0.39400000000000002
sS'r'
I47
sg16
I122
sg17
I9
sg18
I0
sg19
I1
sg20
I5
sg21
F0.19600000000000001
sg22
F0.69999999999999996
sg23
F0.28699999999999998
sba(iPlayer
Player
p363
(dp364
g7
I0
sg8
I83
sg9
I549
sg10
S'Torii Hunter'
p365
sg12
I23
sg13
F0.76500000000000001
sg14
I17
sS'h'
I157
sg15
F0.44600000000000001
sS'r'
I71
sg16
I89
sg17
I33
sg18
I2
sg19
I3
sg20
I4
sg21
F0.28599999999999998
sg22
F0.40000000000000002
sg23
F0.31900000000000001
sba(iPlayer
Player
p366
(dp367
g7
I0
sg8
I82
sg9
I502
sg10
S'Justin Morneau'
p368
sg12
I34
sg13
F0.85999999999999999
sg14
I17
sS'h'
I160
sg15
F0.496
sS'r'
I62
sg16
I60
sg17
I32
sg18
I3
sg19
I3
sg20
I0
sg21
F0.31900000000000001
sg22
F3.2000000000000002
sg23
F0.36399999999999999
sba(iPlayer
Player
p369
(dp370
g7
I0
sg8
I51
sg9
I461
sg10
S'Rajai Davis'
p371
sg12
I22
sg13
F0.72099999999999997
sg14
I8
sS'h'
I130
sg15
F0.40100000000000002
sS'r'
I64
sg16
I75
sg17
I27
sg18
I2
sg19
I11
sg20
I36
sg21
F0.28199999999999997
sg22
F1.2
sg23
F0.32000000000000001
sba(iPlayer
Player
p372
(dp373
g7
I0
sg8
I24
sg9
I260
sg10
S'Jarrod Dyson'
p374
sg12
I22
sg13
F0.65100000000000002
sg14
I1
sS'h'
I70
sg15
F0.32700000000000001
sS'r'
I33
sg16
I52
sg17
I4
sg18
I4
sg19
I7
sg20
I36
sg21
F0.26900000000000002
sg22
F2.7999999999999998
sg23
F0.32400000000000001
sba(iPlayer
Player
p375
(dp376
g7
I0
sg8
I15
sg9
I210
sg10
S'Jordan Schafer'
p377
sg12
I22
sg13
F0.61499999999999999
sg14
I1
sS'h'
I50
sg15
F0.30499999999999999
sS'r'
I26
sg16
I48
sg17
I9
sg18
I1
sg19
I7
sg20
I30
sg21
F0.23799999999999999
sg22
F0.10000000000000001
sg23
F0.31
sba(iPlayer
Player
p378
(dp379
g7
I0
sg8
I17
sg9
I280
sg10
S'Eric Young Jr.'
p380
sg12
I24
sg13
F0.60999999999999999
sg14
I1
sS'h'
I64
sg15
F0.311
sS'r'
I48
sg16
I60
sg17
I10
sg18
I5
sg19
I6
sg20
I30
sg21
F0.22900000000000001
sg22
F0.90000000000000002
sg23
F0.29899999999999999
sba(iPlayer
Player
p381
(dp382
g7
I0
sg8
I55
sg9
I538
sg10
S'Jimmy Rollins'
p383
sg12
I64
sg13
F0.71699999999999997
sg14
I17
sS'h'
I131
sg15
F0.39400000000000002
sS'r'
I78
sg16
I100
sg17
I22
sg18
I4
sg19
I6
sg20
I28
sg21
F0.24299999999999999
sg22
F3.8999999999999999
sg23
F0.32300000000000001
sba(iPlayer
Player
p384
(dp385
g7
I0
sg8
I53
sg9
I471
sg10
S'Lorenzo Cain'
p386
sg12
I24
sg13
F0.751
sg14
I5
sS'h'
I142
sg15
F0.41199999999999998
sS'r'
I55
sg16
I108
sg17
I29
sg18
I4
sg19
I5
sg20
I28
sg21
F0.30099999999999999
sg22
F5
sg23
F0.33900000000000002
sba(iPlayer
Player
p387
(dp388
g7
I0
sg8
I9
sg9
I312
sg10
S'James Jones'
p389
sg12
I12
sg13
F0.58899999999999997
sg14
I0
sS'h'
I78
sg15
F0.311
sS'r'
I46
sg16
I67
sg17
I9
sg18
I5
sg19
I1
sg20
I27
sg21
F0.25
sg22
F-0.20000000000000001
sg23
F0.27800000000000002
sba(iPlayer
Player
p390
(dp391
g7
I0
sg8
I24
sg9
I394
sg10
S'Emilio Bonifacio'
p392
sg12
I26
sg13
F0.65000000000000002
sg14
I3
sS'h'
I102
sg15
F0.34499999999999997
sS'r'
I47
sg16
I85
sg17
I17
sg18
I4
sg19
I8
sg20
I26
sg21
F0.25900000000000001
sg22
F1
sg23
F0.30499999999999999
sba(iPlayer
Player
p393
(dp394
g7
I0
sg8
I46
sg9
I343
sg10
S'Carl Crawford'
p395
sg12
I16
sg13
F0.76700000000000002
sg14
I8
sS'h'
I103
sg15
F0.42899999999999999
sS'r'
I56
sg16
I55
sg17
I14
sg18
I3
sg19
I6
sg20
I23
sg21
F0.29999999999999999
sg22
F2.3999999999999999
sg23
F0.33900000000000002
sba(iPlayer
Player
p396
(dp397
g7
I0
sg8
I41
sg9
I500
sg10
S'Jason Kipnis'
p398
sg12
I50
sg13
F0.64000000000000001
sg14
I6
sS'h'
I120
sg15
F0.33000000000000002
sS'r'
I61
sg16
I100
sg17
I25
sg18
I1
sg19
I3
sg20
I22
sg21
F0.23999999999999999
sg22
F0.90000000000000002
sg23
F0.31
sba(iPlayer
Player
p399
(dp400
g7
I0
sg8
I36
sg9
I351
sg10
S'Sam Fuld'
p401
sg12
I43
sg13
F0.66300000000000003
sg14
I4
sS'h'
I84
sg15
F0.34200000000000003
sS'r'
I40
sg16
I63
sg17
I16
sg18
I4
sg19
I4
sg20
I21
sg21
F0.23899999999999999
sg22
F1.7
sg23
F0.32100000000000001
sba(iPlayer
Player
p402
(dp403
g7
I0
sg8
I58
sg9
I573
sg10
S'Jason Heyward'
p404
sg12
I67
sg13
F0.73499999999999999
sg14
I11
sS'h'
I155
sg15
F0.38400000000000001
sS'r'
I74
sg16
I98
sg17
I26
sg18
I3
sg19
I4
sg20
I20
sg21
F0.27100000000000002
sg22
F6.4000000000000004
sg23
F0.35099999999999998
sba(iPlayer
Player
p405
(dp406
g7
I0
sg8
I43
sg9
I388
sg10
S'Drew Stubbs'
p407
sg12
I30
sg13
F0.82099999999999995
sg14
I15
sS'h'
I112
sg15
F0.48199999999999998
sS'r'
I67
sg16
I136
sg17
I22
sg18
I4
sg19
I3
sg20
I20
sg21
F0.28899999999999998
sg22
F2.7000000000000002
sg23
F0.33900000000000002
sba(iPlayer
Player
p408
(dp409
g7
I0
sg8
I12
sg9
I232
sg10
S'Craig Gentry'
p410
sg12
I17
sg13
F0.60799999999999998
sg14
I0
sS'h'
I59
sg15
F0.28899999999999998
sS'r'
I38
sg16
I44
sg17
I6
sg18
I1
sg19
I2
sg20
I20
sg21
F0.254
sg22
F2
sg23
F0.31900000000000001
sba(iPlayer
Player
p411
(dp412
g7
I0
sg8
I42
sg9
I402
sg10
S'Kolten Wong'
p413
sg12
I21
sg13
F0.68000000000000005
sg14
I12
sS'h'
I100
sg15
F0.38800000000000001
sS'r'
I52
sg16
I71
sg17
I14
sg18
I3
sg19
I4
sg20
I20
sg21
F0.249
sg22
F2.2000000000000002
sg23
F0.29199999999999998
sba(iPlayer
Player
p414
(dp415
g7
I0
sg8
I47
sg9
I463
sg10
S'Coco Crisp'
p416
sg12
I66
sg13
F0.69899999999999995
sg14
I9
sS'h'
I114
sg15
F0.36299999999999999
sS'r'
I68
sg16
I66
sg17
I21
sg18
I3
sg19
I5
sg20
I19
sg21
F0.246
sg22
F1.1000000000000001
sg23
F0.33600000000000002
sba(iPlayer
Player
p417
(dp418
g7
I0
sg8
I42
sg9
I494
sg10
S'DJ LeMahieu'
p419
sg12
I33
sg13
F0.66300000000000003
sg14
I5
sS'h'
I132
sg15
F0.34799999999999998
sS'r'
I59
sg16
I97
sg17
I15
sg18
I5
sg19
I10
sg20
I10
sg21
F0.26700000000000002
sg22
F1.6000000000000001
sg23
F0.315
sba(iPlayer
Player
p420
(dp421
g7
I0
sg8
I20
sg9
I357
sg10
S'Everth Cabrera'
p422
sg12
I20
sg13
F0.57199999999999995
sg14
I3
sS'h'
I83
sg15
F0.29999999999999999
sS'r'
I36
sg16
I86
sg17
I13
sg18
I1
sg19
I8
sg20
I18
sg21
F0.23200000000000001
sg22
F0.59999999999999998
sg23
F0.27200000000000002
sba(iPlayer
Player
p423
(dp424
g7
I0
sg8
I40
sg9
I529
sg10
S'Gerardo Parra'
p425
sg12
I32
sg13
F0.67700000000000005
sg14
I9
sS'h'
I138
sg15
F0.36899999999999999
sS'r'
I64
sg16
I100
sg17
I22
sg18
I4
sg19
I7
sg20
I9
sg21
F0.26100000000000001
sg22
F-0.20000000000000001
sg23
F0.308
sba(iPlayer
Player
p426
(dp427
g7
I0
sg8
I53
sg9
I551
sg10
S'Dustin Pedroia'
p428
sg12
I51
sg13
F0.71199999999999997
sg14
I7
sS'h'
I153
sg15
F0.376
sS'r'
I72
sg16
I75
sg17
I33
sg18
I0
sg19
I6
sg20
I6
sg21
F0.27800000000000002
sg22
F4.7999999999999998
sg23
F0.33700000000000002
sba(iPlayer
Player
p429
(dp430
g7
I0
sg8
I27
sg9
I383
sg10
S'Angel Pagan'
p431
sg12
I25
sg13
F0.73099999999999998
sg14
I3
sS'h'
I115
sg15
F0.38900000000000001
sS'r'
I56
sg16
I53
sg17
I21
sg18
I2
sg19
I6
sg20
I16
sg21
F0.29999999999999999
sg22
F1.3999999999999999
sg23
F0.34200000000000003
sba(iPlayer
Player
p432
(dp433
g7
I0
sg8
I33
sg9
I406
sg10
S'Will Venable'
p434
sg12
I33
sg13
F0.61299999999999999
sg14
I8
sS'h'
I91
sg15
F0.32500000000000001
sS'r'
I47
sg16
I107
sg17
I13
sg18
I2
sg19
I6
sg20
I11
sg21
F0.224
sg22
F0.90000000000000002
sg23
F0.28799999999999998
sba(iPlayer
Player
p435
(dp436
g7
I0
sg8
I66
sg9
I564
sg10
S'Curtis Granderson'
p437
sg12
I79
sg13
F0.71399999999999997
sg14
I20
sS'h'
I128
sg15
F0.38800000000000001
sS'r'
I73
sg16
I141
sg17
I27
sg18
I2
sg19
I2
sg20
I8
sg21
F0.22700000000000001
sg22
F1.3
sg23
F0.32600000000000001
sba(iPlayer
Player
p438
(dp439
g7
I0
sg8
I55
sg9
I415
sg10
S'Mike Napoli'
p440
sg12
I78
sg13
F0.78900000000000003
sg14
I17
sS'h'
I103
sg15
F0.41899999999999998
sS'r'
I49
sg16
I133
sg17
I20
sg18
I0
sg19
I2
sg20
I3
sg21
F0.248
sg22
F3.2000000000000002
sg23
F0.37
sba(iPlayer
Player
p441
(dp442
g7
I0
sg8
I48
sg9
I443
sg10
S'Seth Smith'
p443
sg12
I69
sg13
F0.80700000000000005
sg14
I12
sS'h'
I118
sg15
F0.44
sS'r'
I55
sg16
I87
sg17
I31
sg18
I5
sg19
I1
sg20
I1
sg21
F0.26600000000000001
sg22
F3.8999999999999999
sg23
F0.36699999999999999
sba(iPlayer
Player
p444
(dp445
g7
I0
sg8
I35
sg9
I434
sg10
S'Dexter Fowler'
p446
sg12
I66
sg13
F0.77400000000000002
sg14
I8
sS'h'
I120
sg15
F0.39900000000000002
sS'r'
I61
sg16
I108
sg17
I21
sg18
I4
sg19
I4
sg20
I11
sg21
F0.27600000000000002
sg22
F1.7
sg23
F0.375
sba(iPlayer
Player
p447
(dp448
g7
I0
sg8
I51
sg9
I478
sg10
S'Luis Valbuena'
p449
sg12
I65
sg13
F0.77600000000000002
sg14
I16
sS'h'
I119
sg15
F0.435
sS'r'
I68
sg16
I113
sg17
I33
sg18
I4
sg19
I2
sg20
I1
sg21
F0.249
sg22
F1.6000000000000001
sg23
F0.34100000000000003
sba(iPlayer
Player
p450
(dp451
g7
I0
sg8
I51
sg9
I360
sg10
S'Ike Davis'
p452
sg12
I63
sg13
F0.72199999999999998
sg14
I11
sS'h'
I84
sg15
F0.378
sS'r'
I43
sg16
I78
sg17
I19
sg18
I0
sg19
I4
sg20
I0
sg21
F0.23300000000000001
sg22
F-0.20000000000000001
sg23
F0.34399999999999997
sba(iPlayer
Player
p453
(dp454
g7
I0
sg8
I52
sg9
I418
sg10
S'Matt Joyce'
p455
sg12
I62
sg13
F0.73199999999999998
sg14
I9
sS'h'
I106
sg15
F0.38300000000000001
sS'r'
I51
sg16
I111
sg17
I23
sg18
I2
sg19
I5
sg20
I2
sg21
F0.254
sg22
F1.3
sg23
F0.34899999999999998
sba(iPlayer
Player
p456
(dp457
g7
I0
sg8
I47
sg9
I390
sg10
S'Alex Avila'
p458
sg12
I61
sg13
F0.68600000000000005
sg14
I11
sS'h'
I85
sg15
F0.35899999999999999
sS'r'
I44
sg16
I151
sg17
I22
sg18
I0
sg19
I3
sg20
I0
sg21
F0.218
sg22
F2
sg23
F0.32700000000000001
sba(iPlayer
Player
p459
(dp460
g7
I0
sg8
I50
sg9
I407
sg10
S'Tyler Flowers'
p461
sg12
I25
sg13
F0.69299999999999995
sg14
I15
sS'h'
I98
sg15
F0.39600000000000002
sS'r'
I42
sg16
I159
sg17
I16
sg18
I1
sg19
I1
sg20
I0
sg21
F0.24099999999999999
sg22
F2.2999999999999998
sg23
F0.29699999999999999
sba(iPlayer
Player
p462
(dp463
g7
I0
sg8
I60
sg9
I438
sg10
S'Mike Zunino'
p464
sg12
I17
sg13
F0.65800000000000003
sg14
I22
sS'h'
I87
sg15
F0.40400000000000003
sS'r'
I51
sg16
I158
sg17
I20
sg18
I2
sg19
I3
sg20
I0
sg21
F0.19900000000000001
sg22
F0.59999999999999998
sg23
F0.254
sba(iPlayer
Player
p465
(dp466
g7
I0
sg8
I56
sg9
I465
sg10
S'Jason Castro'
p467
sg12
I34
sg13
F0.65100000000000002
sg14
I14
sS'h'
I103
sg15
F0.36599999999999999
sS'r'
I43
sg16
I151
sg17
I21
sg18
I2
sg19
I0
sg20
I1
sg21
F0.222
sg22
F1.7
sg23
F0.28599999999999998
sba(iPlayer
Player
p468
(dp469
g7
I0
sg8
I66
sg9
I493
sg10
S'Jay Bruce'
p470
sg12
I44
sg13
F0.65400000000000003
sg14
I18
sS'h'
I107
sg15
F0.373
sS'r'
I71
sg16
I149
sg17
I21
sg18
I1
sg19
I3
sg20
I12
sg21
F0.217
sg22
F-1.1000000000000001
sg23
F0.28100000000000003
sba(iPlayer
Player
p471
(dp472
g7
I0
sg8
I44
sg9
I373
sg10
S'Jarrod Saltalamacchia'
p473
sg12
I55
sg13
F0.68100000000000005
sg14
I11
sS'h'
I82
sg15
F0.36199999999999999
sS'r'
I43
sg16
I143
sg17
I20
sg18
I0
sg19
I1
sg20
I0
sg21
F0.22
sg22
F-0
sg23
F0.32000000000000001
sba(iPlayer
Player
p474
(dp475
g7
I0
sg8
I66
sg9
I533
sg10
S'Nick Castellanos'
p476
sg12
I36
sg13
F0.69999999999999996
sg14
I11
sS'h'
I138
sg15
F0.39400000000000002
sS'r'
I50
sg16
I140
sg17
I31
sg18
I4
sg19
I2
sg20
I2
sg21
F0.25900000000000001
sg22
F-1.5
sg23
F0.30599999999999999
sba(iPlayer
Player
p477
(dp478
g7
I0
sg8
I46
sg9
I538
sg10
S'Xander Bogaerts'
p479
sg12
I39
sg13
F0.66000000000000003
sg14
I12
sS'h'
I129
sg15
F0.36199999999999999
sS'r'
I60
sg16
I138
sg17
I28
sg18
I1
sg19
I3
sg20
I2
sg21
F0.23999999999999999
sg22
F0.20000000000000001
sg23
F0.29699999999999999
sba(iPlayer
Player
p480
(dp481
g7
I0
sg8
I44
sg9
I310
sg10
S'Jon Singleton'
p482
sg12
I50
sg13
F0.62
sg14
I13
sS'h'
I52
sg15
F0.33500000000000002
sS'r'
I42
sg16
I134
sg17
I13
sg18
I0
sg19
I3
sg20
I2
sg21
F0.16800000000000001
sg22
F-0.80000000000000004
sg23
F0.28499999999999998
sba(iPlayer
Player
p483
(dp484
g7
I0
sg8
I40
sg9
I455
sg10
S'Shin-Soo Choo'
p485
sg12
I58
sg13
F0.71399999999999997
sg14
I13
sS'h'
I110
sg15
F0.374
sS'r'
I58
sg16
I131
sg17
I19
sg18
I1
sg19
I4
sg20
I3
sg21
F0.24199999999999999
sg22
F0.10000000000000001
sg23
F0.34000000000000002
sba(iPlayer
Player
p486
(dp487
g7
I0
sg8
I65
sg9
I528
sg10
S'Starlin Castro'
p488
sg12
I35
sg13
F0.77700000000000002
sg14
I14
sS'h'
I154
sg15
F0.438
sS'r'
I58
sg16
I100
sg17
I33
sg18
I1
sg19
I4
sg20
I4
sg21
F0.29199999999999998
sg22
F2
sg23
F0.33900000000000002
sba(iPlayer
Player
p489
(dp490
g7
I0
sg8
I66
sg9
I494
sg10
S'Aramis Ramirez'
p491
sg12
I21
sg13
F0.75700000000000001
sg14
I15
sS'h'
I141
sg15
F0.42699999999999999
sS'r'
I47
sg16
I75
sg17
I23
sg18
I1
sg19
I0
sg20
I3
sg21
F0.28499999999999998
sg22
F1.3999999999999999
sg23
F0.33000000000000002
sba(iPlayer
Player
p492
(dp493
g7
I0
sg8
I55
sg9
I455
sg10
S'Joe Mauer'
p494
sg12
I60
sg13
F0.73199999999999998
sg14
I4
sS'h'
I126
sg15
F0.371
sS'r'
I60
sg16
I96
sg17
I27
sg18
I2
sg19
I0
sg20
I3
sg21
F0.27700000000000002
sg22
F2.1000000000000001
sg23
F0.36099999999999999
sba(iPlayer
Player
p495
(dp496
g7
I0
sg8
I74
sg9
I485
sg10
S'Yan Gomes'
p497
sg12
I24
sg13
F0.78500000000000003
sg14
I21
sS'h'
I135
sg15
F0.47199999999999998
sS'r'
I61
sg16
I120
sg17
I25
sg18
I3
sg19
I0
sg20
I0
sg21
F0.27800000000000002
sg22
F4.4000000000000004
sg23
F0.313
sba(iPlayer
Player
p498
(dp499
g7
I0
sg8
I49
sg9
I338
sg10
S'Steve Pearce'
p500
sg12
I40
sg13
F0.93000000000000005
sg14
I21
sS'h'
I99
sg15
F0.55600000000000005
sS'r'
I51
sg16
I76
sg17
I26
sg18
I0
sg19
I0
sg20
I5
sg21
F0.29299999999999998
sg22
F6
sg23
F0.373
sba(iPlayer
Player
p501
(dp502
g7
I0
sg8
I47
sg9
I416
sg10
S'Juan Lagares'
p503
sg12
I20
sg13
F0.70299999999999996
sg14
I4
sS'h'
I117
sg15
F0.38200000000000001
sS'r'
I46
sg16
I87
sg17
I24
sg18
I3
sg19
I4
sg20
I13
sg21
F0.28100000000000003
sg22
F5.5
sg23
F0.32100000000000001
sba(iPlayer
Player
p504
(dp505
g7
I0
sg8
I67
sg9
I379
sg10
S'Russell Martin'
p506
sg12
I59
sg13
F0.83199999999999996
sg14
I11
sS'h'
I110
sg15
F0.42999999999999999
sS'r'
I45
sg16
I78
sg17
I20
sg18
I0
sg19
I4
sg20
I4
sg21
F0.28999999999999998
sg22
F5.5
sg23
F0.40200000000000002
sba(iPlayer
Player
p507
(dp508
g7
I0
sg8
I52
sg9
I315
sg10
S'Troy Tulowitzki'
p509
sg12
I50
sg13
F1.0349999999999999
sg14
I21
sS'h'
I107
sg15
F0.60299999999999998
sS'r'
I71
sg16
I57
sg17
I18
sg18
I1
sg19
I1
sg20
I1
sg21
F0.34000000000000002
sg22
F5.5
sg23
F0.432
sbasb.